target datalayout = "e-m:e-p270:32:32-p271:32:32-p272:64:64-i64:64-i128:128-f80:128-n8:16:32:64-S128"
target triple = "x86_64-pc-linux-gnu"

%struct.AVCodecContext = type { ptr, i32, i32, ptr, i32, i32, ptr, ptr, ptr, i64, i32, i32, ptr, i32, %struct.AVRational, %struct.AVRational, %struct.AVRational, i32, i32, i32, i32, i32, %struct.AVRational, i32, i32, i32, i32, i32, i32, i32, i32, i32, i32, i32, ptr, ptr, i32, float, float, float, float, float, float, float, float, float, i32, i32, i32, i32, i32, i32, i32, i32, i32, i32, i32, i32, ptr, ptr, ptr, i32, i32, i32, i32, i32, i32, i32, i32, i32, i32, %struct.AVChannelLayout, i32, i32, i32, i32, i32, i32, i32, i32, ptr, i32, i32, i32, float, float, i32, i32, i32, i32, i32, ptr, i64, i64, float, float, i32, i32, ptr, ptr, i32, i32, i32, i32, i32, ptr, ptr, ptr, ptr, i32, i32, [8 x i64], i32, i32, i32, i32, i32, i32, i32, ptr, ptr, i32, i32, i32, i32, i32, i32, i32, i32, i32, i32, ptr, ptr, i32, i32, ptr, ptr, ptr, ptr, i32, i32, i64, i32, i32, i64, ptr, i64, ptr, i32, ptr, i32 }
%struct.AVRational = type { i32, i32 }
%struct.AVChannelLayout = type { i32, i32, %union.anon.0, ptr }
%union.anon.0 = type { i64 }
%struct.MXpegDecodeContext = type { %struct.MJpegDecodeContext, [2 x ptr], i32, i32, i32, ptr, i32, i32, ptr, i32, i32 }
%struct.MJpegDecodeContext = type { ptr, ptr, %struct.GetBitContext, i32, i32, i32, ptr, [4 x [64 x i16]], [3 x [4 x %struct.VLC]], [4 x i32], i32, i32, i32, i32, i32, i32, i32, i32, i32, [4 x i8], [4 x i8], i32, i32, i32, i32, i32, i32, i32, i32, i32, i32, i32, i32, i32, i32, i32, i32, i32, [4 x i32], [4 x i32], [4 x i32], [4 x i32], [4 x i32], [4 x i32], [4 x i32], [4 x i32], [4 x i32], [4 x i32], [4 x i32], i32, i32, [4 x i32], [4 x i32], ptr, ptr, i32, [4 x i32], ptr, [64 x i16], [4 x ptr], [4 x ptr], [4 x i64], i32, i32, [64 x i8], %struct.BlockDSPContext, %struct.HpelDSPContext, %struct.IDCTDSPContext, i32, i32, i32, i32, i32, i32, i32, i32, i32, ptr, i32, i32, ptr, ptr, ptr, ptr, i32, i32, ptr, i32, i32, ptr, i64, ptr, i64, [2 x [4 x [16 x i8]]], [2 x [4 x [256 x i8]]], i32, i32, ptr, ptr, [8 x i8] }
%struct.GetBitContext = type { ptr, ptr, i32, i32, i32 }
%struct.VLC = type { i32, ptr, i32, i32 }
%struct.BlockDSPContext = type { ptr, ptr, [2 x ptr] }
%struct.HpelDSPContext = type { [4 x [4 x ptr]], [4 x [4 x ptr]], [4 x [4 x ptr]], [4 x ptr] }
%struct.IDCTDSPContext = type { ptr, ptr, ptr, ptr, ptr, ptr, [64 x i8], i32, i32 }

; Function Attrs: cold nounwind optsize uwtable
define internal i32 @mxpeg_decode_end(ptr noundef %0) #0 {
  %2 = alloca ptr, align 8
  %3 = alloca ptr, align 8
  %4 = alloca i32, align 4
  store ptr %0, ptr %2, align 8, !tbaa !4
  call void @llvm.lifetime.start.p0(i64 8, ptr %3) #8
  %5 = load ptr, ptr %2, align 8, !tbaa !4
  %6 = getelementptr inbounds nuw %struct.AVCodecContext, ptr %5, i32 0, i32 6
  %7 = load ptr, ptr %6, align 8, !tbaa !9
  store ptr %7, ptr %3, align 8, !tbaa !29
  call void @llvm.lifetime.start.p0(i64 4, ptr %4) #8
  %8 = load ptr, ptr %2, align 8, !tbaa !4
  %9 = call i32 @ff_mjpeg_decode_end(ptr noundef %8)
  store i32 0, ptr %4, align 4, !tbaa !52
  br label %10

10:                                               ; preds = %19, %1
  %11 = load i32, ptr %4, align 4, !tbaa !52
  %12 = icmp slt i32 %11, 2
  br i1 %12, label %13, label %22

13:                                               ; preds = %10
  %14 = load ptr, ptr %3, align 8, !tbaa !29
  %15 = getelementptr inbounds nuw %struct.MXpegDecodeContext, ptr %14, i32 0, i32 1
  %16 = load i32, ptr %4, align 4, !tbaa !52
  %17 = sext i32 %16 to i64
  %18 = getelementptr inbounds [2 x ptr], ptr %15, i64 0, i64 %17
  call void @av_frame_free(ptr noundef %18)
  br label %19

19:                                               ; preds = %13
  %20 = load i32, ptr %4, align 4, !tbaa !52
  %21 = add nsw i32 %20, 1
  store i32 %21, ptr %4, align 4, !tbaa !52
  br label %10, !llvm.loop !74

22:                                               ; preds = %10
  %23 = load ptr, ptr %3, align 8, !tbaa !29
  %24 = getelementptr inbounds nuw %struct.MXpegDecodeContext, ptr %23, i32 0, i32 6
  store i32 0, ptr %24, align 8, !tbaa !69
  %25 = load ptr, ptr %3, align 8, !tbaa !29
  %26 = getelementptr inbounds nuw %struct.MXpegDecodeContext, ptr %25, i32 0, i32 5
  call void @av_freep(ptr noundef %26)
  %27 = load ptr, ptr %3, align 8, !tbaa !29
  %28 = getelementptr inbounds nuw %struct.MXpegDecodeContext, ptr %27, i32 0, i32 8
  call void @av_freep(ptr noundef %28)
  call void @llvm.lifetime.end.p0(i64 4, ptr %4) #8
  call void @llvm.lifetime.end.p0(i64 8, ptr %3) #8
  ret i32 0
}