; Function Attrs: cold nounwind optsize uwtable
define internal noundef i32 @mxpeg_decode_end(ptr noundef %0) #0 {
.critedge:
  %1 = getelementptr inbounds nuw i8, ptr %0, i64 32
  %2 = load ptr, ptr %1, align 8, !tbaa !4
  %3 = tail call i32 @ff_mjpeg_decode_end(ptr noundef %0) #6
  %4 = getelementptr inbounds nuw i8, ptr %2, i64 4480
  tail call void @av_frame_free(ptr noundef nonnull %4) #6
  %5 = getelementptr inbounds nuw i8, ptr %2, i64 4488
  tail call void @av_frame_free(ptr noundef nonnull %5) #6
  %6 = getelementptr inbounds nuw i8, ptr %2, i64 4520
  store i32 0, ptr %6, align 8, !tbaa !60
  %7 = getelementptr inbounds nuw i8, ptr %2, i64 4512
  tail call void @av_freep(ptr noundef nonnull %7) #6
  %8 = getelementptr inbounds nuw i8, ptr %2, i64 4528
  tail call void @av_freep(ptr noundef nonnull %8) #6
  ret i32 0
}